target datalayout = "e-m:e-p270:32:32-p271:32:32-p272:64:64-i64:64-i128:128-f80:128-n8:16:32:64-S128"
target triple = "x86_64-pc-linux-gnu"

%struct._zend_array = type { %struct._zend_refcounted_h, %union.anon.4, i32, %union.anon.6, i32, i32, i32, i32, i64, ptr }
%struct._zend_refcounted_h = type { i32, %union.anon.3 }
%union.anon.3 = type { i32 }
%union.anon.4 = type { i32 }
%union.anon.6 = type { ptr }
%struct.stat = type { i64, i64, i64, i32, i32, i32, i32, i64, i64, i64, i64, %struct.timespec, %struct.timespec, %struct.timespec, [3 x i64] }
%struct.timespec = type { i64, i64 }
%struct.php_cli_server_client = type { ptr, i32, ptr, i32, ptr, %struct.php_http_parser, i8, ptr, ptr, i32, i64, %struct.php_cli_server_request, i8, %struct.php_cli_server_content_sender, i32 }
%struct.php_http_parser = type { i8, i8, i8, i8, i32, i64, i16, i16, i16, i8, i8, ptr }
%struct.php_cli_server_request = type { i32, i32, ptr, ptr, i64, ptr, i64, ptr, i64, ptr, i64, %struct._zend_array, %struct._zend_array, ptr, i64, ptr, i64, %struct.stat }
%struct.php_cli_server_content_sender = type { %struct.php_cli_server_buffer }
%struct.php_cli_server_buffer = type { ptr, ptr }

; Function Attrs: nounwind uwtable
define internal i32 @php_cli_server_client_read_request_on_query_string(ptr noundef %0, ptr noundef %1, i64 noundef %2) #0 {
  %4 = alloca ptr, align 8
  %5 = alloca ptr, align 8
  %6 = alloca i64, align 8
  %7 = alloca ptr, align 8
  store ptr %0, ptr %4, align 8, !tbaa !236
  store ptr %1, ptr %5, align 8, !tbaa !67
  store i64 %2, ptr %6, align 8, !tbaa !68
  call void @llvm.lifetime.start.p0(i64 8, ptr %7) #20
  %8 = load ptr, ptr %4, align 8, !tbaa !236
  %9 = getelementptr inbounds nuw %struct.php_http_parser, ptr %8, i32 0, i32 11
  %10 = load ptr, ptr %9, align 8, !tbaa !238
  store ptr %10, ptr %7, align 8, !tbaa !60
  %11 = load ptr, ptr %7, align 8, !tbaa !60
  %12 = getelementptr inbounds nuw %struct.php_cli_server_client, ptr %11, i32 0, i32 11
  %13 = getelementptr inbounds nuw %struct.php_cli_server_request, ptr %12, i32 0, i32 9
  %14 = load ptr, ptr %13, align 8, !tbaa !116
  %15 = icmp eq ptr %14, null
  %16 = xor i1 %15, true
  %17 = xor i1 %16, true
  %18 = zext i1 %17 to i32
  %19 = sext i32 %18 to i64
  %20 = call i64 @llvm.expect.i64(i64 %19, i64 1)
  %21 = icmp ne i64 %20, 0
  br i1 %21, label %22, label %33

22:                                               ; preds = %3
  %23 = load ptr, ptr %5, align 8, !tbaa !67
  %24 = load i64, ptr %6, align 8, !tbaa !68
  %25 = call noalias ptr @zend_strndup(ptr noundef %23, i64 noundef %24)
  %26 = load ptr, ptr %7, align 8, !tbaa !60
  %27 = getelementptr inbounds nuw %struct.php_cli_server_client, ptr %26, i32 0, i32 11
  %28 = getelementptr inbounds nuw %struct.php_cli_server_request, ptr %27, i32 0, i32 9
  store ptr %25, ptr %28, align 8, !tbaa !116
  %29 = load i64, ptr %6, align 8, !tbaa !68
  %30 = load ptr, ptr %7, align 8, !tbaa !60
  %31 = getelementptr inbounds nuw %struct.php_cli_server_client, ptr %30, i32 0, i32 11
  %32 = getelementptr inbounds nuw %struct.php_cli_server_request, ptr %31, i32 0, i32 10
  store i64 %29, ptr %32, align 8, !tbaa !239
  br label %87

33:                                               ; preds = %3
  %34 = load i64, ptr %6, align 8, !tbaa !68
  %35 = icmp ule i64 %34, 81920
  br i1 %35, label %36, label %44

36:                                               ; preds = %33
  %37 = load i64, ptr %6, align 8, !tbaa !68
  %38 = sub i64 81920, %37
  %39 = load ptr, ptr %7, align 8, !tbaa !60
  %40 = getelementptr inbounds nuw %struct.php_cli_server_client, ptr %39, i32 0, i32 11
  %41 = getelementptr inbounds nuw %struct.php_cli_server_request, ptr %40, i32 0, i32 10
  %42 = load i64, ptr %41, align 8, !tbaa !239
  %43 = icmp uge i64 %38, %42
  br label %44

44:                                               ; preds = %36, %33
  %45 = phi i1 [ false, %33 ], [ %43, %36 ]
  call void @llvm.assume(i1 %45)
  %46 = load ptr, ptr %7, align 8, !tbaa !60
  %47 = getelementptr inbounds nuw %struct.php_cli_server_client, ptr %46, i32 0, i32 11
  %48 = getelementptr inbounds nuw %struct.php_cli_server_request, ptr %47, i32 0, i32 9
  %49 = load ptr, ptr %48, align 8, !tbaa !116
  %50 = load ptr, ptr %7, align 8, !tbaa !60
  %51 = getelementptr inbounds nuw %struct.php_cli_server_client, ptr %50, i32 0, i32 11
  %52 = getelementptr inbounds nuw %struct.php_cli_server_request, ptr %51, i32 0, i32 10
  %53 = load i64, ptr %52, align 8, !tbaa !239
  %54 = load i64, ptr %6, align 8, !tbaa !68
  %55 = add i64 %53, %54
  %56 = add i64 %55, 1
  %57 = call ptr @__zend_realloc(ptr noundef %49, i64 noundef %56) #26
  %58 = load ptr, ptr %7, align 8, !tbaa !60
  %59 = getelementptr inbounds nuw %struct.php_cli_server_client, ptr %58, i32 0, i32 11
  %60 = getelementptr inbounds nuw %struct.php_cli_server_request, ptr %59, i32 0, i32 9
  store ptr %57, ptr %60, align 8, !tbaa !116
  %61 = load ptr, ptr %7, align 8, !tbaa !60
  %62 = getelementptr inbounds nuw %struct.php_cli_server_client, ptr %61, i32 0, i32 11
  %63 = getelementptr inbounds nuw %struct.php_cli_server_request, ptr %62, i32 0, i32 9
  %64 = load ptr, ptr %63, align 8, !tbaa !116
  %65 = load ptr, ptr %7, align 8, !tbaa !60
  %66 = getelementptr inbounds nuw %struct.php_cli_server_client, ptr %65, i32 0, i32 11
  %67 = getelementptr inbounds nuw %struct.php_cli_server_request, ptr %66, i32 0, i32 10
  %68 = load i64, ptr %67, align 8, !tbaa !239
  %69 = getelementptr inbounds nuw i8, ptr %64, i64 %68
  %70 = load ptr, ptr %5, align 8, !tbaa !67
  %71 = load i64, ptr %6, align 8, !tbaa !68
  call void @llvm.memcpy.p0.p0.i64(ptr align 1 %69, ptr align 1 %70, i64 %71, i1 false)
  %72 = load i64, ptr %6, align 8, !tbaa !68
  %73 = load ptr, ptr %7, align 8, !tbaa !60
  %74 = getelementptr inbounds nuw %struct.php_cli_server_client, ptr %73, i32 0, i32 11
  %75 = getelementptr inbounds nuw %struct.php_cli_server_request, ptr %74, i32 0, i32 10
  %76 = load i64, ptr %75, align 8, !tbaa !239
  %77 = add i64 %76, %72
  store i64 %77, ptr %75, align 8, !tbaa !239
  %78 = load ptr, ptr %7, align 8, !tbaa !60
  %79 = getelementptr inbounds nuw %struct.php_cli_server_client, ptr %78, i32 0, i32 11
  %80 = getelementptr inbounds nuw %struct.php_cli_server_request, ptr %79, i32 0, i32 9
  %81 = load ptr, ptr %80, align 8, !tbaa !116
  %82 = load ptr, ptr %7, align 8, !tbaa !60
  %83 = getelementptr inbounds nuw %struct.php_cli_server_client, ptr %82, i32 0, i32 11
  %84 = getelementptr inbounds nuw %struct.php_cli_server_request, ptr %83, i32 0, i32 10
  %85 = load i64, ptr %84, align 8, !tbaa !239
  %86 = getelementptr inbounds nuw i8, ptr %81, i64 %85
  store i8 0, ptr %86, align 1, !tbaa !11
  br label %87

87:                                               ; preds = %44, %22
  call void @llvm.lifetime.end.p0(i64 8, ptr %7) #20
  ret i32 0
}