; Function Attrs: nounwind uwtable
define internal noundef i32 @php_cli_server_client_read_request_on_query_string(ptr noundef readonly captures(none) %0, ptr noundef %1, i64 noundef %2) #0 {
  %4 = getelementptr inbounds nuw i8, ptr %0, i64 24
  %5 = load ptr, ptr %4, align 8, !tbaa !206
  %6 = getelementptr inbounds nuw i8, ptr %5, i64 176
  %7 = load ptr, ptr %6, align 8, !tbaa !116
  %8 = icmp eq ptr %7, null
  br i1 %8, label %9, label %12, !prof !7

9:                                                ; preds = %3
  %10 = tail call noalias ptr @zend_strndup(ptr noundef %1, i64 noundef %2) #29
  store ptr %10, ptr %6, align 8, !tbaa !116
  %11 = getelementptr inbounds nuw i8, ptr %5, i64 184
  store i64 %2, ptr %11, align 8, !tbaa !207
  br label %27

12:                                               ; preds = %3
  %13 = icmp ult i64 %2, 81921
  tail call void @llvm.assume(i1 %13)
  %14 = sub nuw nsw i64 81920, %2
  %15 = getelementptr inbounds nuw i8, ptr %5, i64 184
  %16 = load i64, ptr %15, align 8, !tbaa !207
  %17 = icmp uge i64 %14, %16
  tail call void @llvm.assume(i1 %17)
  %18 = add nuw nsw i64 %2, 1
  %19 = add nuw nsw i64 %18, %16
  %20 = tail call ptr @__zend_realloc(ptr noundef nonnull %7, i64 noundef %19) #37
  store ptr %20, ptr %6, align 8, !tbaa !116
  %21 = load i64, ptr %15, align 8, !tbaa !207
  %22 = getelementptr inbounds nuw i8, ptr %20, i64 %21
  tail call void @llvm.memcpy.p0.p0.i64(ptr align 1 %22, ptr align 1 %1, i64 %2, i1 false)
  %23 = load i64, ptr %15, align 8, !tbaa !207
  %24 = add i64 %23, %2
  store i64 %24, ptr %15, align 8, !tbaa !207
  %25 = load ptr, ptr %6, align 8, !tbaa !116
  %26 = getelementptr inbounds nuw i8, ptr %25, i64 %24
  store i8 0, ptr %26, align 1, !tbaa !4
  br label %27

27:                                               ; preds = %12, %9
  ret i32 0
}